target datalayout = "e-m:e-p270:32:32-p271:32:32-p272:64:64-i64:64-i128:128-f80:128-n8:16:32:64-S128"
target triple = "x86_64-pc-linux-gnu"

@postmaster_alive_fds = dso_local global [2 x i32] [i32 -1, i32 -1], align 4
@.str.4 = private unnamed_addr constant [13 x i8] c"postmaster.c\00", align 1
@ListenSockets = internal global ptr null, align 8
@NumListenSockets = internal global i32 0, align 4
@pm_wait_set = internal global ptr null, align 8
@.str.59 = private unnamed_addr constant [70 x i8] c"could not close postmaster death monitoring pipe in child process: %m\00", align 1
@__func__.ClosePostmasterPorts = private unnamed_addr constant [21 x i8] c"ClosePostmasterPorts\00", align 1
@.str.60 = private unnamed_addr constant [34 x i8] c"could not close listen socket: %m\00", align 1
@syslogPipe = external global [2 x i32], align 4

; Function Attrs: nounwind uwtable
define dso_local void @ClosePostmasterPorts(i1 noundef zeroext %0) #2 {
  %2 = alloca i8, align 1
  %3 = alloca i32, align 4
  %4 = zext i1 %0 to i8
  store i8 %4, ptr %2, align 1
  %5 = load ptr, ptr @pm_wait_set, align 8
  %6 = icmp ne ptr %5, null
  br i1 %6, label %7, label %9

7:                                                ; preds = %1
  %8 = load ptr, ptr @pm_wait_set, align 8
  call void @FreeWaitEventSetAfterFork(ptr noundef %8)
  store ptr null, ptr @pm_wait_set, align 8
  br label %9

9:                                                ; preds = %7, %1
  %10 = load i32, ptr getelementptr inbounds ([2 x i32], ptr @postmaster_alive_fds, i64 0, i64 1), align 4
  %11 = call i32 @close(i32 noundef %10)
  %12 = icmp ne i32 %11, 0
  br i1 %12, label %13, label %24

13:                                               ; preds = %9
  br label %14

14:                                               ; preds = %13
  br i1 true, label %15, label %17

15:                                               ; preds = %14
  %16 = call zeroext i1 @errstart_cold(i32 noundef 22, ptr noundef null) #16
  br i1 %16, label %19, label %22

17:                                               ; preds = %14
  %18 = call zeroext i1 @errstart(i32 noundef 22, ptr noundef null)
  br i1 %18, label %19, label %22

19:                                               ; preds = %17, %15
  %20 = call i32 @errcode_for_file_access()
  %21 = call i32 (ptr, ...) @errmsg_internal(ptr noundef @.str.59)
  call void @errfinish(ptr noundef @.str.4, i32 noundef 1861, ptr noundef @__func__.ClosePostmasterPorts)
  br label %22

22:                                               ; preds = %19, %17, %15
  unreachable

23:                                               ; No predecessors!
  br label %24

24:                                               ; preds = %23, %9
  store i32 -1, ptr getelementptr inbounds ([2 x i32], ptr @postmaster_alive_fds, i64 0, i64 1), align 4
  call void @ReleaseExternalFD()
  %25 = load ptr, ptr @ListenSockets, align 8
  %26 = icmp ne ptr %25, null
  br i1 %26, label %27, label %58

27:                                               ; preds = %24
  call void @llvm.lifetime.start.p0(i64 4, ptr %3) #15
  store i32 0, ptr %3, align 4
  br label %28

28:                                               ; preds = %53, %27
  %29 = load i32, ptr %3, align 4
  %30 = load i32, ptr @NumListenSockets, align 4
  %31 = icmp slt i32 %29, %30
  br i1 %31, label %33, label %32

32:                                               ; preds = %28
  call void @llvm.lifetime.end.p0(i64 4, ptr %3) #15
  br label %56

33:                                               ; preds = %28
  %34 = load ptr, ptr @ListenSockets, align 8
  %35 = load i32, ptr %3, align 4
  %36 = sext i32 %35 to i64
  %37 = getelementptr inbounds i32, ptr %34, i64 %36
  %38 = load i32, ptr %37, align 4
  %39 = call i32 @close(i32 noundef %38)
  %40 = icmp ne i32 %39, 0
  br i1 %40, label %41, label %52

41:                                               ; preds = %33
  br label %42

42:                                               ; preds = %41
  br i1 false, label %43, label %45

43:                                               ; preds = %42
  %44 = call zeroext i1 @errstart_cold(i32 noundef 15, ptr noundef null) #16
  br i1 %44, label %47, label %49

45:                                               ; preds = %42
  %46 = call zeroext i1 @errstart(i32 noundef 15, ptr noundef null)
  br i1 %46, label %47, label %49

47:                                               ; preds = %45, %43
  %48 = call i32 (ptr, ...) @errmsg_internal(ptr noundef @.str.60)
  call void @errfinish(ptr noundef @.str.4, i32 noundef 1880, ptr noundef @__func__.ClosePostmasterPorts)
  br label %49

49:                                               ; preds = %47, %45, %43
  br label %50

50:                                               ; preds = %49
  br label %51

51:                                               ; preds = %50
  br label %52

52:                                               ; preds = %51, %33
  br label %53

53:                                               ; preds = %52
  %54 = load i32, ptr %3, align 4
  %55 = add i32 %54, 1
  store i32 %55, ptr %3, align 4
  br label %28, !llvm.loop !15

56:                                               ; preds = %32
  %57 = load ptr, ptr @ListenSockets, align 8
  call void @pfree(ptr noundef %57)
  br label %58

58:                                               ; preds = %56, %24
  store i32 0, ptr @NumListenSockets, align 4
  store ptr null, ptr @ListenSockets, align 8
  %59 = load i8, ptr %2, align 1, !range !6, !noundef !7
  %60 = trunc i8 %59 to i1
  br i1 %60, label %68, label %61

61:                                               ; preds = %58
  %62 = load i32, ptr @syslogPipe, align 4
  %63 = icmp sge i32 %62, 0
  br i1 %63, label %64, label %67

64:                                               ; preds = %61
  %65 = load i32, ptr @syslogPipe, align 4
  %66 = call i32 @close(i32 noundef %65)
  br label %67

67:                                               ; preds = %64, %61
  store i32 -1, ptr @syslogPipe, align 4
  br label %68

68:                                               ; preds = %67, %58
  ret void
}