; Function Attrs: nounwind uwtable
define dso_local void @ClosePostmasterPorts(i1 noundef zeroext %0) local_unnamed_addr #2 {
  %2 = load ptr, ptr @pm_wait_set, align 8
  %.not = icmp eq ptr %2, null
  br i1 %.not, label %4, label %3

3:                                                ; preds = %1
  tail call void @FreeWaitEventSetAfterFork(ptr noundef nonnull %2) #18
  store ptr null, ptr @pm_wait_set, align 8
  br label %4

4:                                                ; preds = %3, %1
  %5 = load i32, ptr getelementptr inbounds nuw (i8, ptr @postmaster_alive_fds, i64 4), align 4
  %6 = tail call i32 @close(i32 noundef %5) #18
  %.not6 = icmp eq i32 %6, 0
  br i1 %.not6, label %11, label %7

7:                                                ; preds = %4
  %8 = tail call zeroext i1 @errstart_cold(i32 noundef 22, ptr noundef null) #19
  tail call void @llvm.assume(i1 %8)
  %9 = tail call i32 @errcode_for_file_access() #18
  %10 = tail call i32 (ptr, ...) @errmsg_internal(ptr noundef nonnull @.str.59) #18
  tail call void @errfinish(ptr noundef nonnull @.str.4, i32 noundef 1861, ptr noundef nonnull @__func__.ClosePostmasterPorts) #18
  unreachable

11:                                               ; preds = %4
  store i32 -1, ptr getelementptr inbounds nuw (i8, ptr @postmaster_alive_fds, i64 4), align 4
  tail call void @ReleaseExternalFD() #18
  %12 = load ptr, ptr @ListenSockets, align 8
  %.not7 = icmp eq ptr %12, null
  br i1 %.not7, label %28, label %.preheader

.preheader:                                       ; preds = %11
  %13 = load i32, ptr @NumListenSockets, align 4
  %14 = icmp sgt i32 %13, 0
  br i1 %14, label %.lr.ph, label %._crit_edge

._crit_edge.loopexit:                             ; preds = %24
  %.pre = load ptr, ptr @ListenSockets, align 8
  br label %._crit_edge

._crit_edge:                                      ; preds = %._crit_edge.loopexit, %.preheader
  %15 = phi ptr [ %.pre, %._crit_edge.loopexit ], [ %12, %.preheader ]
  tail call void @pfree(ptr noundef %15) #18
  br label %28

.lr.ph:                                           ; preds = %.preheader, %24
  %indvars.iv = phi i64 [ %indvars.iv.next, %24 ], [ 0, %.preheader ]
  %16 = load ptr, ptr @ListenSockets, align 8
  %17 = getelementptr inbounds nuw i32, ptr %16, i64 %indvars.iv
  %18 = load i32, ptr %17, align 4
  %19 = tail call i32 @close(i32 noundef %18) #18
  %.not8 = icmp eq i32 %19, 0
  br i1 %.not8, label %24, label %20

20:                                               ; preds = %.lr.ph
  %21 = tail call zeroext i1 @errstart(i32 noundef 15, ptr noundef null) #18
  br i1 %21, label %22, label %24

22:                                               ; preds = %20
  %23 = tail call i32 (ptr, ...) @errmsg_internal(ptr noundef nonnull @.str.60) #18
  tail call void @errfinish(ptr noundef nonnull @.str.4, i32 noundef 1880, ptr noundef nonnull @__func__.ClosePostmasterPorts) #18
  br label %24

24:                                               ; preds = %.lr.ph, %22, %20
  %indvars.iv.next = add nuw nsw i64 %indvars.iv, 1
  %25 = load i32, ptr @NumListenSockets, align 4
  %26 = sext i32 %25 to i64
  %27 = icmp slt i64 %indvars.iv.next, %26
  br i1 %27, label %.lr.ph, label %._crit_edge.loopexit, !llvm.loop !19

28:                                               ; preds = %._crit_edge, %11
  store i32 0, ptr @NumListenSockets, align 4
  store ptr null, ptr @ListenSockets, align 8
  br i1 %0, label %35, label %29

29:                                               ; preds = %28
  %30 = load i32, ptr @syslogPipe, align 4
  %31 = icmp sgt i32 %30, -1
  br i1 %31, label %32, label %34

32:                                               ; preds = %29
  %33 = tail call i32 @close(i32 noundef %30) #18
  br label %34

34:                                               ; preds = %32, %29
  store i32 -1, ptr @syslogPipe, align 4
  br label %35

35:                                               ; preds = %34, %28
  ret void
}